target datalayout = "e-m:e-p270:32:32-p271:32:32-p272:64:64-i64:64-i128:128-f80:128-n8:16:32:64-S128"
target triple = "x86_64-pc-linux-gnu"

%struct.bignum_st = type { ptr, i32, i32, i32, i32 }

@.str = private unnamed_addr constant [30 x i8] c"../openssl/crypto/bn/bn_mod.c\00", align 1
@__func__.BN_nnmod = private unnamed_addr constant [9 x i8] c"BN_nnmod\00", align 1

; Function Attrs: nounwind uwtable
define i32 @BN_nnmod(ptr noundef %0, ptr noundef %1, ptr noundef %2, ptr noundef %3) #0 {
  %5 = alloca i32, align 4
  %6 = alloca ptr, align 8
  %7 = alloca ptr, align 8
  %8 = alloca ptr, align 8
  %9 = alloca ptr, align 8
  store ptr %0, ptr %6, align 8, !tbaa !3
  store ptr %1, ptr %7, align 8, !tbaa !3
  store ptr %2, ptr %8, align 8, !tbaa !3
  store ptr %3, ptr %9, align 8, !tbaa !8
  %10 = load ptr, ptr %6, align 8, !tbaa !3
  %11 = load ptr, ptr %8, align 8, !tbaa !3
  %12 = icmp eq ptr %10, %11
  br i1 %12, label %13, label %14

13:                                               ; preds = %4
  call void @ERR_new()
  call void @ERR_set_debug(ptr noundef @.str, i32 noundef 22, ptr noundef @__func__.BN_nnmod)
  call void (i32, i32, ptr, ...) @ERR_set_error(i32 noundef 3, i32 noundef 524550, ptr noundef null)
  store i32 0, ptr %5, align 4
  br label %38

14:                                               ; preds = %4
  %15 = load ptr, ptr %6, align 8, !tbaa !3
  %16 = load ptr, ptr %7, align 8, !tbaa !3
  %17 = load ptr, ptr %8, align 8, !tbaa !3
  %18 = load ptr, ptr %9, align 8, !tbaa !8
  %19 = call i32 @BN_div(ptr noundef null, ptr noundef %15, ptr noundef %16, ptr noundef %17, ptr noundef %18)
  %20 = icmp ne i32 %19, 0
  br i1 %20, label %22, label %21

21:                                               ; preds = %14
  store i32 0, ptr %5, align 4
  br label %38

22:                                               ; preds = %14
  %23 = load ptr, ptr %6, align 8, !tbaa !3
  %24 = getelementptr inbounds nuw %struct.bignum_st, ptr %23, i32 0, i32 3
  %25 = load i32, ptr %24, align 8, !tbaa !10
  %26 = icmp ne i32 %25, 0
  br i1 %26, label %28, label %27

27:                                               ; preds = %22
  store i32 1, ptr %5, align 4
  br label %38

28:                                               ; preds = %22
  %29 = load ptr, ptr %8, align 8, !tbaa !3
  %30 = getelementptr inbounds nuw %struct.bignum_st, ptr %29, i32 0, i32 3
  %31 = load i32, ptr %30, align 8, !tbaa !10
  %32 = icmp ne i32 %31, 0
  %33 = select i1 %32, ptr @BN_sub, ptr @BN_add
  %34 = load ptr, ptr %6, align 8, !tbaa !3
  %35 = load ptr, ptr %6, align 8, !tbaa !3
  %36 = load ptr, ptr %8, align 8, !tbaa !3
  %37 = call i32 %33(ptr noundef %34, ptr noundef %35, ptr noundef %36)
  store i32 %37, ptr %5, align 4
  br label %38

38:                                               ; preds = %28, %27, %21, %13
  %39 = load i32, ptr %5, align 4
  ret i32 %39
}