; Function Attrs: nounwind uwtable
define i32 @BN_nnmod(ptr noundef %0, ptr noundef %1, ptr noundef %2, ptr noundef %3) local_unnamed_addr #0 {
  %5 = icmp eq ptr %0, %2
  br i1 %5, label %6, label %7

6:                                                ; preds = %4
  tail call void @ERR_new() #4
  tail call void @ERR_set_debug(ptr noundef nonnull @.str, i32 noundef 22, ptr noundef nonnull @__func__.BN_nnmod) #4
  tail call void (i32, i32, ptr, ...) @ERR_set_error(i32 noundef 3, i32 noundef 524550, ptr noundef null) #4
  br label %17

7:                                                ; preds = %4
  %8 = tail call i32 @BN_div(ptr noundef null, ptr noundef %0, ptr noundef %1, ptr noundef %2, ptr noundef %3) #4
  %.not = icmp eq i32 %8, 0
  br i1 %.not, label %17, label %9

9:                                                ; preds = %7
  %10 = getelementptr inbounds nuw i8, ptr %0, i64 16
  %11 = load i32, ptr %10, align 8, !tbaa !3
  %.not13 = icmp eq i32 %11, 0
  br i1 %.not13, label %17, label %12

12:                                               ; preds = %9
  %13 = getelementptr inbounds nuw i8, ptr %2, i64 16
  %14 = load i32, ptr %13, align 8, !tbaa !3
  %.not14 = icmp eq i32 %14, 0
  %15 = select i1 %.not14, ptr @BN_add, ptr @BN_sub
  %16 = tail call i32 %15(ptr noundef nonnull %0, ptr noundef nonnull %0, ptr noundef %2) #4, !callees !10
  br label %17

17:                                               ; preds = %9, %7, %12, %6
  %.0 = phi i32 [ 0, %6 ], [ %16, %12 ], [ 0, %7 ], [ 1, %9 ]
  ret i32 %.0
}